target datalayout = "e-m:e-p270:32:32-p271:32:32-p272:64:64-i64:64-i128:128-f80:128-n8:16:32:64-S128"
target triple = "x86_64-pc-linux-gnu"

%"struct.Luau::Location" = type { %"struct.Luau::Position", %"struct.Luau::Position" }
%"struct.Luau::Position" = type { i32, i32 }
%"class.Luau::AstNode" = type <{ ptr, i32, %"struct.Luau::Location", [4 x i8] }>

; Function Attrs: mustprogress nounwind uwtable
define linkonce_odr dso_local void @_ZN4Luau8PositionC2Ejj(ptr noundef nonnull align 4 dereferenceable(8) %0, i32 noundef %1, i32 noundef %2) unnamed_addr #2 comdat align 2 {
  %4 = alloca ptr, align 8
  %5 = alloca i32, align 4
  %6 = alloca i32, align 4
  store ptr %0, ptr %4, align 8, !tbaa !296
  store i32 %1, ptr %5, align 4, !tbaa !4
  store i32 %2, ptr %6, align 4, !tbaa !4
  %7 = load ptr, ptr %4, align 8
  %8 = getelementptr inbounds nuw %"struct.Luau::Position", ptr %7, i32 0, i32 0
  %9 = load i32, ptr %5, align 4, !tbaa !4
  store i32 %9, ptr %8, align 4, !tbaa !298
  %10 = getelementptr inbounds nuw %"struct.Luau::Position", ptr %7, i32 0, i32 1
  %11 = load i32, ptr %6, align 4, !tbaa !4
  store i32 %11, ptr %10, align 4, !tbaa !291
  ret void
}

; Function Attrs: mustprogress uwtable
define linkonce_odr dso_local void @_ZN4Luau8LocationC2ERKNS_8PositionEj(ptr noundef nonnull align 4 dereferenceable(16) %0, ptr noundef nonnull align 4 dereferenceable(8) %1, i32 noundef %2) unnamed_addr #7 comdat align 2 {
  %4 = alloca ptr, align 8
  %5 = alloca ptr, align 8
  %6 = alloca i32, align 4
  store ptr %0, ptr %4, align 8, !tbaa !294
  store ptr %1, ptr %5, align 8, !tbaa !296
  store i32 %2, ptr %6, align 4, !tbaa !4
  %7 = load ptr, ptr %4, align 8
  %8 = getelementptr inbounds nuw %"struct.Luau::Location", ptr %7, i32 0, i32 0
  %9 = load ptr, ptr %5, align 8, !tbaa !296
  call void @llvm.memcpy.p0.p0.i64(ptr align 4 %8, ptr align 4 %9, i64 8, i1 false), !tbaa.struct !290
  %10 = getelementptr inbounds nuw %"struct.Luau::Location", ptr %7, i32 0, i32 1
  %11 = load ptr, ptr %5, align 8, !tbaa !296
  %12 = getelementptr inbounds nuw %"struct.Luau::Position", ptr %11, i32 0, i32 0
  %13 = load i32, ptr %12, align 4, !tbaa !298
  %14 = load ptr, ptr %5, align 8, !tbaa !296
  %15 = getelementptr inbounds nuw %"struct.Luau::Position", ptr %14, i32 0, i32 1
  %16 = load i32, ptr %15, align 4, !tbaa !291
  %17 = load i32, ptr %6, align 4, !tbaa !4
  %18 = add i32 %16, %17
  call void @_ZN4Luau8PositionC2Ejj(ptr noundef nonnull align 4 dereferenceable(8) %10, i32 noundef %13, i32 noundef %18)
  ret void
}

; Function Attrs: inlinehint mustprogress nounwind uwtable
define linkonce_odr dso_local noundef nonnull align 4 dereferenceable(4) ptr @_ZSt3maxIjERKT_S2_S2_(ptr noundef nonnull align 4 dereferenceable(4) %0, ptr noundef nonnull align 4 dereferenceable(4) %1) #3 comdat {
  %3 = alloca ptr, align 8
  %4 = alloca ptr, align 8
  %5 = alloca ptr, align 8
  store ptr %0, ptr %4, align 8, !tbaa !292
  store ptr %1, ptr %5, align 8, !tbaa !292
  %6 = load ptr, ptr %4, align 8, !tbaa !292
  %7 = load i32, ptr %6, align 4, !tbaa !4
  %8 = load ptr, ptr %5, align 8, !tbaa !292
  %9 = load i32, ptr %8, align 4, !tbaa !4
  %10 = icmp ult i32 %7, %9
  br i1 %10, label %11, label %13

11:                                               ; preds = %2
  %12 = load ptr, ptr %5, align 8, !tbaa !292
  store ptr %12, ptr %3, align 8
  br label %15

13:                                               ; preds = %2
  %14 = load ptr, ptr %4, align 8, !tbaa !292
  store ptr %14, ptr %3, align 8
  br label %15

15:                                               ; preds = %13, %11
  %16 = load ptr, ptr %3, align 8
  ret ptr %16
}

; Function Attrs: mustprogress uwtable
define dso_local { i64, i64 } @_ZN4Luau12TypeChecker214getEndLocationEPKNS_15AstExprFunctionE(ptr noundef %0) #7 align 2 {
  %2 = alloca %"struct.Luau::Location", align 4
  %3 = alloca ptr, align 8
  %4 = alloca %"struct.Luau::Position", align 4
  %5 = alloca i32, align 4
  %6 = alloca i32, align 4
  %7 = alloca %"struct.Luau::Location", align 4
  store ptr %0, ptr %3, align 8, !tbaa !283
  %8 = load ptr, ptr %3, align 8, !tbaa !283
  %9 = getelementptr inbounds nuw %"class.Luau::AstNode", ptr %8, i32 0, i32 2
  call void @llvm.memcpy.p0.p0.i64(ptr align 4 %2, ptr align 4 %9, i64 16, i1 false), !tbaa.struct !285
  %10 = getelementptr inbounds nuw %"struct.Luau::Location", ptr %2, i32 0, i32 0
  %11 = getelementptr inbounds nuw %"struct.Luau::Position", ptr %10, i32 0, i32 0
  %12 = load i32, ptr %11, align 4, !tbaa !286
  %13 = getelementptr inbounds nuw %"struct.Luau::Location", ptr %2, i32 0, i32 1
  %14 = getelementptr inbounds nuw %"struct.Luau::Position", ptr %13, i32 0, i32 0
  %15 = load i32, ptr %14, align 4, !tbaa !289
  %16 = icmp ne i32 %12, %15
  br i1 %16, label %17, label %25

17:                                               ; preds = %1
  call void @llvm.lifetime.start.p0(i64 8, ptr %4) #4
  %18 = getelementptr inbounds nuw %"struct.Luau::Location", ptr %2, i32 0, i32 1
  call void @llvm.memcpy.p0.p0.i64(ptr align 4 %4, ptr align 4 %18, i64 8, i1 false), !tbaa.struct !290
  call void @llvm.lifetime.start.p0(i64 4, ptr %5) #4
  store i32 0, ptr %5, align 4, !tbaa !4
  call void @llvm.lifetime.start.p0(i64 4, ptr %6) #4
  %19 = getelementptr inbounds nuw %"struct.Luau::Position", ptr %4, i32 0, i32 1
  %20 = load i32, ptr %19, align 4, !tbaa !291
  %21 = sub i32 %20, 3
  store i32 %21, ptr %6, align 4, !tbaa !4
  %22 = call noundef nonnull align 4 dereferenceable(4) ptr @_ZSt3maxIjERKT_S2_S2_(ptr noundef nonnull align 4 dereferenceable(4) %5, ptr noundef nonnull align 4 dereferenceable(4) %6)
  %23 = load i32, ptr %22, align 4, !tbaa !4
  %24 = getelementptr inbounds nuw %"struct.Luau::Position", ptr %4, i32 0, i32 1
  store i32 %23, ptr %24, align 4, !tbaa !291
  call void @llvm.lifetime.end.p0(i64 4, ptr %6) #4
  call void @llvm.lifetime.end.p0(i64 4, ptr %5) #4
  call void @llvm.lifetime.start.p0(i64 16, ptr %7) #4
  call void @_ZN4Luau8LocationC2ERKNS_8PositionEj(ptr noundef nonnull align 4 dereferenceable(16) %7, ptr noundef nonnull align 4 dereferenceable(8) %4, i32 noundef 3)
  call void @llvm.memcpy.p0.p0.i64(ptr align 4 %2, ptr align 4 %7, i64 16, i1 false), !tbaa.struct !285
  call void @llvm.lifetime.end.p0(i64 16, ptr %7) #4
  call void @llvm.lifetime.end.p0(i64 8, ptr %4) #4
  br label %25

25:                                               ; preds = %17, %1
  %26 = load { i64, i64 }, ptr %2, align 4
  ret { i64, i64 } %26
}