; Function Attrs: mustprogress nofree norecurse nosync nounwind willreturn memory(argmem: read) uwtable
define dso_local { i64, i64 } @_ZN4Luau12TypeChecker214getEndLocationEPKNS_15AstExprFunctionE(ptr noundef readonly captures(none) %0) local_unnamed_addr #8 align 2 {
  %2 = getelementptr inbounds nuw i8, ptr %0, i64 12
  %.sroa.0.0.copyload = load i64, ptr %2, align 4
  %.sroa.0.sroa.0.0.extract.trunc = trunc i64 %.sroa.0.0.copyload to i32
  %.sroa.4.0..sroa_idx = getelementptr inbounds nuw i8, ptr %0, i64 20
  %.sroa.4.0.copyload = load i64, ptr %.sroa.4.0..sroa_idx, align 4
  %.sroa.4.8.extract.trunc = trunc i64 %.sroa.4.0.copyload to i32
  %.not = icmp eq i32 %.sroa.0.sroa.0.0.extract.trunc, %.sroa.4.8.extract.trunc
  %3 = and i64 %.sroa.4.0.copyload, -4294967296
  %.sroa.5.0.insert.shift = add i64 %3, -12884901888
  %.sroa.011.0.insert.ext = and i64 %.sroa.4.0.copyload, 4294967295
  %.sroa.011.0.insert.insert = or disjoint i64 %.sroa.5.0.insert.shift, %.sroa.011.0.insert.ext
  %.sroa.0.sroa.4.0.in.in = select i1 %.not, i64 %.sroa.0.0.copyload, i64 %.sroa.011.0.insert.insert
  %.fca.0.insert = insertvalue { i64, i64 } poison, i64 %.sroa.0.sroa.4.0.in.in, 0
  %.fca.1.insert = insertvalue { i64, i64 } %.fca.0.insert, i64 %.sroa.4.0.copyload, 1
  ret { i64, i64 } %.fca.1.insert
}